target datalayout = "e-m:e-p270:32:32-p271:32:32-p272:64:64-i64:64-i128:128-f80:128-n8:16:32:64-S128"
target triple = "x86_64-pc-linux-gnu"

%struct.evp_cipher_ctx_st = type { ptr, ptr, i32, i32, [16 x i8], [16 x i8], [32 x i8], i32, ptr, i32, i32, i64, ptr, i32, i32, [32 x i8], i64, ptr, ptr }

; Function Attrs: nounwind uwtable
define i32 @EVP_CipherUpdate(ptr noundef %0, ptr noundef %1, ptr noundef %2, ptr noundef %3, i32 noundef %4) #0 {
  %6 = alloca i32, align 4
  %7 = alloca ptr, align 8
  %8 = alloca ptr, align 8
  %9 = alloca ptr, align 8
  %10 = alloca ptr, align 8
  %11 = alloca i32, align 4
  store ptr %0, ptr %7, align 8, !tbaa !3
  store ptr %1, ptr %8, align 8, !tbaa !32
  store ptr %2, ptr %9, align 8, !tbaa !66
  store ptr %3, ptr %10, align 8, !tbaa !32
  store i32 %4, ptr %11, align 4, !tbaa !29
  %12 = load ptr, ptr %7, align 8, !tbaa !3
  %13 = getelementptr inbounds nuw %struct.evp_cipher_ctx_st, ptr %12, i32 0, i32 2
  %14 = load i32, ptr %13, align 8, !tbaa !36
  %15 = icmp ne i32 %14, 0
  br i1 %15, label %16, label %23

16:                                               ; preds = %5
  %17 = load ptr, ptr %7, align 8, !tbaa !3
  %18 = load ptr, ptr %8, align 8, !tbaa !32
  %19 = load ptr, ptr %9, align 8, !tbaa !66
  %20 = load ptr, ptr %10, align 8, !tbaa !32
  %21 = load i32, ptr %11, align 4, !tbaa !29
  %22 = call i32 @EVP_EncryptUpdate(ptr noundef %17, ptr noundef %18, ptr noundef %19, ptr noundef %20, i32 noundef %21)
  store i32 %22, ptr %6, align 4
  br label %30

23:                                               ; preds = %5
  %24 = load ptr, ptr %7, align 8, !tbaa !3
  %25 = load ptr, ptr %8, align 8, !tbaa !32
  %26 = load ptr, ptr %9, align 8, !tbaa !66
  %27 = load ptr, ptr %10, align 8, !tbaa !32
  %28 = load i32, ptr %11, align 4, !tbaa !29
  %29 = call i32 @EVP_DecryptUpdate(ptr noundef %24, ptr noundef %25, ptr noundef %26, ptr noundef %27, i32 noundef %28)
  store i32 %29, ptr %6, align 4
  br label %30

30:                                               ; preds = %23, %16
  %31 = load i32, ptr %6, align 4
  ret i32 %31
}