; Function Attrs: nounwind uwtable
define i32 @EVP_CipherUpdate(ptr noundef %0, ptr noundef %1, ptr noundef captures(address_is_null) %2, ptr noundef %3, i32 noundef %4) local_unnamed_addr #0 {
  %6 = getelementptr inbounds nuw i8, ptr %0, i64 16
  %7 = load i32, ptr %6, align 8, !tbaa !27
  %.not = icmp eq i32 %7, 0
  br i1 %.not, label %10, label %8

8:                                                ; preds = %5
  %9 = tail call i32 @EVP_EncryptUpdate(ptr noundef nonnull %0, ptr noundef %1, ptr noundef %2, ptr noundef %3, i32 noundef %4)
  br label %12

10:                                               ; preds = %5
  %11 = tail call i32 @EVP_DecryptUpdate(ptr noundef nonnull %0, ptr noundef %1, ptr noundef %2, ptr noundef %3, i32 noundef %4)
  br label %12

12:                                               ; preds = %10, %8
  %.0 = phi i32 [ %9, %8 ], [ %11, %10 ]
  ret i32 %.0
}